target datalayout = "e-m:e-p270:32:32-p271:32:32-p272:64:64-i64:64-i128:128-f80:128-n8:16:32:64-S128"
target triple = "x86_64-pc-linux-gnu"

%struct.ZSTD_customMem = type { ptr, ptr, ptr }
%struct.ZSTD_DCtx_s = type { ptr, ptr, ptr, ptr, %struct.ZSTD_entropyDTables_t, [640 x i32], ptr, ptr, ptr, ptr, i64, %struct.ZSTD_FrameHeader, i64, i64, i32, i32, i32, i32, %struct.XXH64_state_s, i64, i32, i32, i32, ptr, %struct.ZSTD_customMem, i64, i64, i64, i32, i32, ptr, ptr, i32, i32, i32, ptr, i32, i32, i32, i32, ptr, i64, i64, i64, ptr, i64, i64, i64, i64, ptr, i32, i32, i32, i32, i32, %struct.ZSTD_outBuffer_s, ptr, ptr, i32, [65568 x i8], [18 x i8], i64, i64 }
%struct.ZSTD_entropyDTables_t = type { [513 x %struct.ZSTD_seqSymbol], [257 x %struct.ZSTD_seqSymbol], [513 x %struct.ZSTD_seqSymbol], [4097 x i32], [3 x i32], [157 x i32] }
%struct.ZSTD_seqSymbol = type { i16, i8, i8, i32 }
%struct.ZSTD_FrameHeader = type { i64, i64, i32, i32, i32, i32, i32, i32, i32 }
%struct.XXH64_state_s = type { i64, [4 x i64], [4 x i64], i32, i32, i64 }
%struct.ZSTD_outBuffer_s = type { ptr, i64, i64 }

@repStartValue = internal constant [3 x i32] [i32 1, i32 4, i32 8], align 4

; Function Attrs: nounwind uwtable
define internal i64 @ZSTD_startingInputLength(i32 noundef %0) #0 {
  %2 = alloca i32, align 4
  %3 = alloca i64, align 8
  store i32 %0, ptr %2, align 4, !tbaa !43
  call void @llvm.lifetime.start.p0(i64 8, ptr %3) #11
  %4 = load i32, ptr %2, align 4, !tbaa !43
  %5 = icmp eq i32 %4, 0
  %6 = select i1 %5, i32 5, i32 1
  %7 = sext i32 %6 to i64
  store i64 %7, ptr %3, align 8, !tbaa !24
  %8 = load i64, ptr %3, align 8, !tbaa !24
  call void @llvm.lifetime.end.p0(i64 8, ptr %3) #11
  ret i64 %8
}

; Function Attrs: nounwind uwtable
define i64 @ZSTD_decompressBegin(ptr noundef %0) #0 {
  %2 = alloca ptr, align 8
  store ptr %0, ptr %2, align 8, !tbaa !3
  %3 = icmp ne ptr @ZSTD_trace_decompress_begin, null
  br i1 %3, label %4, label %7

4:                                                ; preds = %1
  %5 = load ptr, ptr %2, align 8, !tbaa !3
  %6 = call i64 @ZSTD_trace_decompress_begin(ptr noundef %5)
  br label %8

7:                                                ; preds = %1
  br label %8

8:                                                ; preds = %7, %4
  %9 = phi i64 [ %6, %4 ], [ 0, %7 ]
  %10 = load ptr, ptr %2, align 8, !tbaa !3
  %11 = getelementptr inbounds nuw %struct.ZSTD_DCtx_s, ptr %10, i32 0, i32 62
  store i64 %9, ptr %11, align 8, !tbaa !96
  %12 = load ptr, ptr %2, align 8, !tbaa !3
  %13 = getelementptr inbounds nuw %struct.ZSTD_DCtx_s, ptr %12, i32 0, i32 20
  %14 = load i32, ptr %13, align 8, !tbaa !77
  %15 = call i64 @ZSTD_startingInputLength(i32 noundef %14)
  %16 = load ptr, ptr %2, align 8, !tbaa !3
  %17 = getelementptr inbounds nuw %struct.ZSTD_DCtx_s, ptr %16, i32 0, i32 10
  store i64 %15, ptr %17, align 8, !tbaa !79
  %18 = load ptr, ptr %2, align 8, !tbaa !3
  %19 = getelementptr inbounds nuw %struct.ZSTD_DCtx_s, ptr %18, i32 0, i32 15
  store i32 0, ptr %19, align 4, !tbaa !80
  %20 = load ptr, ptr %2, align 8, !tbaa !3
  %21 = getelementptr inbounds nuw %struct.ZSTD_DCtx_s, ptr %20, i32 0, i32 12
  store i64 0, ptr %21, align 8, !tbaa !81
  %22 = load ptr, ptr %2, align 8, !tbaa !3
  %23 = getelementptr inbounds nuw %struct.ZSTD_DCtx_s, ptr %22, i32 0, i32 13
  store i64 0, ptr %23, align 8, !tbaa !89
  %24 = load ptr, ptr %2, align 8, !tbaa !3
  %25 = getelementptr inbounds nuw %struct.ZSTD_DCtx_s, ptr %24, i32 0, i32 6
  store ptr null, ptr %25, align 8, !tbaa !75
  %26 = load ptr, ptr %2, align 8, !tbaa !3
  %27 = getelementptr inbounds nuw %struct.ZSTD_DCtx_s, ptr %26, i32 0, i32 7
  store ptr null, ptr %27, align 8, !tbaa !109
  %28 = load ptr, ptr %2, align 8, !tbaa !3
  %29 = getelementptr inbounds nuw %struct.ZSTD_DCtx_s, ptr %28, i32 0, i32 8
  store ptr null, ptr %29, align 8, !tbaa !110
  %30 = load ptr, ptr %2, align 8, !tbaa !3
  %31 = getelementptr inbounds nuw %struct.ZSTD_DCtx_s, ptr %30, i32 0, i32 9
  store ptr null, ptr %31, align 8, !tbaa !28
  %32 = load ptr, ptr %2, align 8, !tbaa !3
  %33 = getelementptr inbounds nuw %struct.ZSTD_DCtx_s, ptr %32, i32 0, i32 4
  %34 = getelementptr inbounds nuw %struct.ZSTD_entropyDTables_t, ptr %33, i32 0, i32 3
  %35 = getelementptr inbounds [4097 x i32], ptr %34, i64 0, i64 0
  store i32 201326604, ptr %35, align 8, !tbaa !43
  %36 = load ptr, ptr %2, align 8, !tbaa !3
  %37 = getelementptr inbounds nuw %struct.ZSTD_DCtx_s, ptr %36, i32 0, i32 17
  store i32 0, ptr %37, align 4, !tbaa !111
  %38 = load ptr, ptr %2, align 8, !tbaa !3
  %39 = getelementptr inbounds nuw %struct.ZSTD_DCtx_s, ptr %38, i32 0, i32 16
  store i32 0, ptr %39, align 8, !tbaa !112
  %40 = load ptr, ptr %2, align 8, !tbaa !3
  %41 = getelementptr inbounds nuw %struct.ZSTD_DCtx_s, ptr %40, i32 0, i32 32
  store i32 0, ptr %41, align 8, !tbaa !94
  %42 = load ptr, ptr %2, align 8, !tbaa !3
  %43 = getelementptr inbounds nuw %struct.ZSTD_DCtx_s, ptr %42, i32 0, i32 14
  store i32 3, ptr %43, align 8, !tbaa !85
  %44 = load ptr, ptr %2, align 8, !tbaa !3
  %45 = getelementptr inbounds nuw %struct.ZSTD_DCtx_s, ptr %44, i32 0, i32 28
  store i32 1, ptr %45, align 8, !tbaa !36
  %46 = load ptr, ptr %2, align 8, !tbaa !3
  %47 = getelementptr inbounds nuw %struct.ZSTD_DCtx_s, ptr %46, i32 0, i32 4
  %48 = getelementptr inbounds nuw %struct.ZSTD_entropyDTables_t, ptr %47, i32 0, i32 4
  %49 = getelementptr inbounds [3 x i32], ptr %48, i64 0, i64 0
  call void @llvm.memcpy.p0.p0.i64(ptr align 4 %49, ptr align 4 @repStartValue, i64 12, i1 false)
  %50 = load ptr, ptr %2, align 8, !tbaa !3
  %51 = getelementptr inbounds nuw %struct.ZSTD_DCtx_s, ptr %50, i32 0, i32 4
  %52 = getelementptr inbounds nuw %struct.ZSTD_entropyDTables_t, ptr %51, i32 0, i32 0
  %53 = getelementptr inbounds [513 x %struct.ZSTD_seqSymbol], ptr %52, i64 0, i64 0
  %54 = load ptr, ptr %2, align 8, !tbaa !3
  %55 = getelementptr inbounds nuw %struct.ZSTD_DCtx_s, ptr %54, i32 0, i32 0
  store ptr %53, ptr %55, align 8, !tbaa !113
  %56 = load ptr, ptr %2, align 8, !tbaa !3
  %57 = getelementptr inbounds nuw %struct.ZSTD_DCtx_s, ptr %56, i32 0, i32 4
  %58 = getelementptr inbounds nuw %struct.ZSTD_entropyDTables_t, ptr %57, i32 0, i32 2
  %59 = getelementptr inbounds [513 x %struct.ZSTD_seqSymbol], ptr %58, i64 0, i64 0
  %60 = load ptr, ptr %2, align 8, !tbaa !3
  %61 = getelementptr inbounds nuw %struct.ZSTD_DCtx_s, ptr %60, i32 0, i32 1
  store ptr %59, ptr %61, align 8, !tbaa !114
  %62 = load ptr, ptr %2, align 8, !tbaa !3
  %63 = getelementptr inbounds nuw %struct.ZSTD_DCtx_s, ptr %62, i32 0, i32 4
  %64 = getelementptr inbounds nuw %struct.ZSTD_entropyDTables_t, ptr %63, i32 0, i32 1
  %65 = getelementptr inbounds [257 x %struct.ZSTD_seqSymbol], ptr %64, i64 0, i64 0
  %66 = load ptr, ptr %2, align 8, !tbaa !3
  %67 = getelementptr inbounds nuw %struct.ZSTD_DCtx_s, ptr %66, i32 0, i32 2
  store ptr %65, ptr %67, align 8, !tbaa !115
  %68 = load ptr, ptr %2, align 8, !tbaa !3
  %69 = getelementptr inbounds nuw %struct.ZSTD_DCtx_s, ptr %68, i32 0, i32 4
  %70 = getelementptr inbounds nuw %struct.ZSTD_entropyDTables_t, ptr %69, i32 0, i32 3
  %71 = getelementptr inbounds [4097 x i32], ptr %70, i64 0, i64 0
  %72 = load ptr, ptr %2, align 8, !tbaa !3
  %73 = getelementptr inbounds nuw %struct.ZSTD_DCtx_s, ptr %72, i32 0, i32 3
  store ptr %71, ptr %73, align 8, !tbaa !116
  ret i64 0
}