; Function Attrs: nounwind uwtable
define noundef i64 @ZSTD_decompressBegin(ptr noundef %0) local_unnamed_addr #0 {
  %.not = icmp eq ptr @ZSTD_trace_decompress_begin, null
  br i1 %.not, label %4, label %2

2:                                                ; preds = %1
  %3 = tail call i64 @ZSTD_trace_decompress_begin(ptr noundef %0) #17
  br label %4

4:                                                ; preds = %1, %2
  %5 = phi i64 [ %3, %2 ], [ 0, %1 ]
  %6 = getelementptr inbounds nuw i8, ptr %0, i64 95984
  store i64 %5, ptr %6, align 8, !tbaa !86
  %7 = getelementptr inbounds nuw i8, ptr %0, i64 30104
  %8 = load i32, ptr %7, align 8, !tbaa !34
  %9 = icmp eq i32 %8, 0
  %10 = select i1 %9, i64 5, i64 1
  %11 = getelementptr inbounds nuw i8, ptr %0, i64 29920
  store i64 %10, ptr %11, align 8, !tbaa !87
  %12 = getelementptr inbounds nuw i8, ptr %0, i64 29996
  store i32 0, ptr %12, align 4, !tbaa !88
  %13 = getelementptr inbounds nuw i8, ptr %0, i64 29976
  %14 = getelementptr inbounds nuw i8, ptr %0, i64 29888
  %15 = getelementptr inbounds nuw i8, ptr %0, i64 32
  %16 = getelementptr inbounds nuw i8, ptr %0, i64 10296
  tail call void @llvm.memset.p0.i64(ptr noundef nonnull align 8 dereferenceable(32) %14, i8 0, i64 32, i1 false)
  tail call void @llvm.memset.p0.i64(ptr noundef nonnull align 8 dereferenceable(16) %13, i8 0, i64 16, i1 false)
  store i32 201326604, ptr %16, align 8, !tbaa !47
  %17 = getelementptr inbounds nuw i8, ptr %0, i64 30004
  store i32 0, ptr %17, align 4, !tbaa !89
  %18 = getelementptr inbounds nuw i8, ptr %0, i64 30000
  store i32 0, ptr %18, align 8, !tbaa !90
  %19 = getelementptr inbounds nuw i8, ptr %0, i64 30200
  store i32 0, ptr %19, align 8, !tbaa !91
  %20 = getelementptr inbounds nuw i8, ptr %0, i64 29992
  store i32 3, ptr %20, align 8, !tbaa !92
  %21 = getelementptr inbounds nuw i8, ptr %0, i64 30176
  store i32 1, ptr %21, align 8, !tbaa !28
  %22 = getelementptr inbounds nuw i8, ptr %0, i64 26684
  tail call void @llvm.memcpy.p0.p0.i64(ptr noundef nonnull align 4 dereferenceable(12) %22, ptr noundef nonnull align 4 dereferenceable(12) @repStartValue, i64 12, i1 false)
  store ptr %15, ptr %0, align 8, !tbaa !93
  %23 = getelementptr inbounds nuw i8, ptr %0, i64 6192
  %24 = getelementptr inbounds nuw i8, ptr %0, i64 8
  store ptr %23, ptr %24, align 8, !tbaa !94
  %25 = getelementptr inbounds nuw i8, ptr %0, i64 4136
  %26 = getelementptr inbounds nuw i8, ptr %0, i64 16
  store ptr %25, ptr %26, align 8, !tbaa !95
  %27 = getelementptr inbounds nuw i8, ptr %0, i64 24
  store ptr %16, ptr %27, align 8, !tbaa !96
  ret i64 0
}